target datalayout = "e-m:e-p270:32:32-p271:32:32-p272:64:64-i64:64-i128:128-f80:128-n8:16:32:64-S128"
target triple = "x86_64-pc-linux-gnu"

%"class.clang::SourceLocation" = type { i32 }
%"class.llvm::PointerIntPair" = type { %"struct.llvm::detail::PunnedPointer" }
%"struct.llvm::detail::PunnedPointer" = type { [8 x i8] }
%"class.llvm::PointerUnion" = type { %"class.llvm::pointer_union_detail::PointerUnionMembers" }
%"class.llvm::pointer_union_detail::PointerUnionMembers" = type { %"class.llvm::pointer_union_detail::PointerUnionMembers.0" }
%"class.llvm::pointer_union_detail::PointerUnionMembers.0" = type { %"class.llvm::pointer_union_detail::PointerUnionMembers.1" }
%"class.llvm::pointer_union_detail::PointerUnionMembers.1" = type { %"class.llvm::PointerIntPair.2" }
%"class.llvm::PointerIntPair.2" = type { %"struct.llvm::detail::PunnedPointer.3" }
%"struct.llvm::detail::PunnedPointer.3" = type { [8 x i8] }
%"class.llvm::StringRef" = type { ptr, i64 }
%"class.clang::Decl.base" = type <{ ptr, %"class.llvm::PointerIntPair", %"class.llvm::PointerUnion", %"class.clang::SourceLocation", i32, i8 }>
%"class.clang::PragmaDetectMismatchDecl" = type { %"class.clang::Decl.base", i64 }

; Function Attrs: mustprogress nounwind uwtable
define linkonce_odr hidden noundef i64 @_ZN4llvm15TrailingObjectsIN5clang24PragmaDetectMismatchDeclEJcEE22callNumTrailingObjectsEPKS2_NS_25trailing_objects_internal19TrailingObjectsBase13OverloadTokenIS2_EE(ptr noundef %0) #0 comdat align 2 {
  %2 = alloca ptr, align 8
  store ptr %0, ptr %2, align 8
  ret i64 1
}

; Function Attrs: mustprogress nounwind uwtable
define linkonce_odr hidden noundef ptr @_ZN4llvm15TrailingObjectsIN5clang24PragmaDetectMismatchDeclEJcEE22getTrailingObjectsImplEPS2_NS_25trailing_objects_internal19TrailingObjectsBase13OverloadTokenIS2_EE(ptr noundef %0) #0 comdat align 2 {
  %2 = alloca ptr, align 8
  store ptr %0, ptr %2, align 8
  %3 = load ptr, ptr %2, align 8
  ret ptr %3
}

; Function Attrs: mustprogress nounwind uwtable
define linkonce_odr hidden noundef i64 @_ZN4llvm25trailing_objects_internal19TrailingObjectsImplILi1EN5clang24PragmaDetectMismatchDeclENS_15TrailingObjectsIS3_JcEEEcJEE25additionalSizeToAllocImplEm(i64 noundef %0) #0 comdat align 2 {
  %2 = alloca i64, align 8
  store i64 %0, ptr %2, align 8
  %3 = load i64, ptr %2, align 8
  ret i64 %3
}

; Function Attrs: mustprogress nounwind uwtable
define linkonce_odr hidden noundef ptr @_ZN4llvm25trailing_objects_internal19TrailingObjectsImplILi1EN5clang24PragmaDetectMismatchDeclENS_15TrailingObjectsIS3_JcEEES3_JcEE22getTrailingObjectsImplEPS3_NS0_19TrailingObjectsBase13OverloadTokenIcEE(ptr noundef %0) #0 comdat align 2 {
  %2 = alloca ptr, align 8
  %3 = alloca ptr, align 8
  store ptr %0, ptr %2, align 8
  %4 = load ptr, ptr %2, align 8
  %5 = call noundef ptr @_ZN4llvm15TrailingObjectsIN5clang24PragmaDetectMismatchDeclEJcEE22getTrailingObjectsImplEPS2_NS_25trailing_objects_internal19TrailingObjectsBase13OverloadTokenIS2_EE(ptr noundef %4)
  %6 = load ptr, ptr %2, align 8
  %7 = call noundef i64 @_ZN4llvm15TrailingObjectsIN5clang24PragmaDetectMismatchDeclEJcEE22callNumTrailingObjectsEPKS2_NS_25trailing_objects_internal19TrailingObjectsBase13OverloadTokenIS2_EE(ptr noundef %6)
  %8 = getelementptr inbounds %"class.clang::PragmaDetectMismatchDecl", ptr %5, i64 %7
  store ptr %8, ptr %3, align 8
  %9 = load ptr, ptr %3, align 8
  ret ptr %9
}

; Function Attrs: mustprogress nounwind uwtable
define linkonce_odr hidden void @_ZN4llvm15TrailingObjectsIN5clang24PragmaDetectMismatchDeclEJcEE31verifyTrailingObjectsAssertionsEv() #0 comdat align 2 {
  ret void
}

; Function Attrs: mustprogress nounwind uwtable
define linkonce_odr hidden noundef i64 @_ZN4llvm25trailing_objects_internal19TrailingObjectsImplILi1EN5clang24PragmaDetectMismatchDeclENS_15TrailingObjectsIS3_JcEEES3_JcEE25additionalSizeToAllocImplEmm(i64 noundef %0, i64 noundef %1) #0 comdat align 2 {
  %3 = alloca i64, align 8
  %4 = alloca i64, align 8
  store i64 %0, ptr %3, align 8
  store i64 %1, ptr %4, align 8
  %5 = load i64, ptr %3, align 8
  %6 = load i64, ptr %4, align 8
  %7 = mul i64 1, %6
  %8 = add i64 %5, %7
  %9 = call noundef i64 @_ZN4llvm25trailing_objects_internal19TrailingObjectsImplILi1EN5clang24PragmaDetectMismatchDeclENS_15TrailingObjectsIS3_JcEEEcJEE25additionalSizeToAllocImplEm(i64 noundef %8)
  ret i64 %9
}

; Function Attrs: mustprogress nounwind uwtable
define linkonce_odr hidden noundef ptr @_ZNK4llvm9StringRef4dataEv(ptr noundef nonnull align 8 dereferenceable(16) %0) #0 comdat align 2 {
  %2 = alloca ptr, align 8
  store ptr %0, ptr %2, align 8
  %3 = load ptr, ptr %2, align 8
  %4 = getelementptr inbounds nuw %"class.llvm::StringRef", ptr %3, i32 0, i32 0
  %5 = load ptr, ptr %4, align 8
  ret ptr %5
}

; Function Attrs: mustprogress nounwind uwtable
define linkonce_odr hidden noundef ptr @_ZN4llvm15TrailingObjectsIN5clang24PragmaDetectMismatchDeclEJcEE18getTrailingObjectsIcEEPT_v(ptr noundef nonnull align 1 dereferenceable(1) %0) #0 comdat align 2 {
  %2 = alloca ptr, align 8
  store ptr %0, ptr %2, align 8
  %3 = load ptr, ptr %2, align 8
  call void @_ZN4llvm15TrailingObjectsIN5clang24PragmaDetectMismatchDeclEJcEE31verifyTrailingObjectsAssertionsEv()
  %4 = call noundef ptr @_ZN4llvm25trailing_objects_internal19TrailingObjectsImplILi1EN5clang24PragmaDetectMismatchDeclENS_15TrailingObjectsIS3_JcEEES3_JcEE22getTrailingObjectsImplEPS3_NS0_19TrailingObjectsBase13OverloadTokenIcEE(ptr noundef %3)
  ret ptr %4
}

; Function Attrs: mustprogress nounwind uwtable
define linkonce_odr hidden void @_ZN5clang24PragmaDetectMismatchDeclC2EPNS_19TranslationUnitDeclENS_14SourceLocationEm(ptr noundef nonnull align 8 dereferenceable(48) %0, ptr noundef %1, i32 %2, i64 noundef %3) unnamed_addr #0 comdat align 2 {
  %5 = alloca %"class.clang::SourceLocation", align 4
  %6 = alloca ptr, align 8
  %7 = alloca ptr, align 8
  %8 = alloca i64, align 8
  %9 = alloca %"class.clang::SourceLocation", align 4
  %10 = getelementptr inbounds nuw %"class.clang::SourceLocation", ptr %5, i32 0, i32 0
  store i32 %2, ptr %10, align 4
  store ptr %0, ptr %6, align 8
  store ptr %1, ptr %7, align 8
  store i64 %3, ptr %8, align 8
  %11 = load ptr, ptr %6, align 8
  %12 = load ptr, ptr %7, align 8
  %13 = icmp eq ptr %12, null
  br i1 %13, label %16, label %14

14:                                               ; preds = %4
  %15 = getelementptr inbounds i8, ptr %12, i64 40
  br label %16

16:                                               ; preds = %14, %4
  %17 = phi ptr [ %15, %14 ], [ null, %4 ]
  call void @llvm.memcpy.p0.p0.i64(ptr align 4 %9, ptr align 4 %5, i64 4, i1 false)
  %18 = getelementptr inbounds nuw %"class.clang::SourceLocation", ptr %9, i32 0, i32 0
  %19 = load i32, ptr %18, align 4
  call void @_ZN5clang4DeclC2ENS0_4KindEPNS_11DeclContextENS_14SourceLocationE(ptr noundef nonnull align 8 dereferenceable(33) %11, i32 noundef 9, ptr noundef %17, i32 %19)
  store ptr getelementptr inbounds inrange(-16, 88) ({ [13 x ptr] }, ptr @_ZTVN5clang24PragmaDetectMismatchDeclE, i32 0, i32 0, i32 2), ptr %11, align 8
  %20 = getelementptr inbounds nuw %"class.clang::PragmaDetectMismatchDecl", ptr %11, i32 0, i32 1
  %21 = load i64, ptr %8, align 8
  store i64 %21, ptr %20, align 8
  ret void
}

; Function Attrs: mustprogress nounwind uwtable
define linkonce_odr hidden noundef i64 @_ZN4llvm15TrailingObjectsIN5clang24PragmaDetectMismatchDeclEJcEE21additionalSizeToAllocIJcEEENSt9enable_ifIXsr3stdE9is_same_vINS3_3FooIJcEEENS6_IJDpT_EEEEEmE4typeEm(i64 noundef %0) #0 comdat align 2 {
  %2 = alloca i64, align 8
  store i64 %0, ptr %2, align 8
  %3 = load i64, ptr %2, align 8
  %4 = call noundef i64 @_ZN4llvm25trailing_objects_internal19TrailingObjectsImplILi1EN5clang24PragmaDetectMismatchDeclENS_15TrailingObjectsIS3_JcEEES3_JcEE25additionalSizeToAllocImplEmm(i64 noundef 0, i64 noundef %3)
  ret i64 %4
}

; Function Attrs: mustprogress nounwind uwtable
define linkonce_odr hidden noundef i64 @_ZNK4llvm9StringRef4sizeEv(ptr noundef nonnull align 8 dereferenceable(16) %0) #0 comdat align 2 {
  %2 = alloca ptr, align 8
  store ptr %0, ptr %2, align 8
  %3 = load ptr, ptr %2, align 8
  %4 = getelementptr inbounds nuw %"class.llvm::StringRef", ptr %3, i32 0, i32 1
  %5 = load i64, ptr %4, align 8
  ret i64 %5
}

; Function Attrs: mustprogress nounwind uwtable
define dso_local noundef ptr @_ZN5clang24PragmaDetectMismatchDecl6CreateERKNS_10ASTContextEPNS_19TranslationUnitDeclENS_14SourceLocationEN4llvm9StringRefES8_(ptr noundef nonnull align 8 dereferenceable(23096) %0, ptr noundef %1, i32 %2, ptr %3, i64 %4, ptr noundef byval(%"class.llvm::StringRef") align 8 %5) #0 align 2 {
  %7 = alloca %"class.clang::SourceLocation", align 4
  %8 = alloca %"class.llvm::StringRef", align 8
  %9 = alloca ptr, align 8
  %10 = alloca ptr, align 8
  %11 = alloca i64, align 8
  %12 = alloca ptr, align 8
  %13 = alloca %"class.clang::SourceLocation", align 4
  %14 = getelementptr inbounds nuw %"class.clang::SourceLocation", ptr %7, i32 0, i32 0
  store i32 %2, ptr %14, align 4
  %15 = getelementptr inbounds nuw { ptr, i64 }, ptr %8, i32 0, i32 0
  store ptr %3, ptr %15, align 8
  %16 = getelementptr inbounds nuw { ptr, i64 }, ptr %8, i32 0, i32 1
  store i64 %4, ptr %16, align 8
  store ptr %0, ptr %9, align 8
  store ptr %1, ptr %10, align 8
  %17 = call noundef i64 @_ZNK4llvm9StringRef4sizeEv(ptr noundef nonnull align 8 dereferenceable(16) %8)
  %18 = add i64 %17, 1
  store i64 %18, ptr %11, align 8
  %19 = load ptr, ptr %9, align 8
  %20 = load ptr, ptr %10, align 8
  %21 = icmp eq ptr %20, null
  br i1 %21, label %24, label %22

22:                                               ; preds = %6
  %23 = getelementptr inbounds i8, ptr %20, i64 40
  br label %24

24:                                               ; preds = %22, %6
  %25 = phi ptr [ %23, %22 ], [ null, %6 ]
  %26 = load i64, ptr %11, align 8
  %27 = call noundef i64 @_ZNK4llvm9StringRef4sizeEv(ptr noundef nonnull align 8 dereferenceable(16) %5)
  %28 = add i64 %26, %27
  %29 = add i64 %28, 1
  %30 = call noundef i64 @_ZN4llvm15TrailingObjectsIN5clang24PragmaDetectMismatchDeclEJcEE21additionalSizeToAllocIJcEEENSt9enable_ifIXsr3stdE9is_same_vINS3_3FooIJcEEENS6_IJDpT_EEEEEmE4typeEm(i64 noundef %29)
  %31 = call noundef ptr @_ZN5clang4DeclnwEmRKNS_10ASTContextEPNS_11DeclContextEm(i64 noundef 48, ptr noundef nonnull align 8 dereferenceable(23096) %19, ptr noundef %25, i64 noundef %30)
  %32 = load ptr, ptr %10, align 8
  call void @llvm.memcpy.p0.p0.i64(ptr align 4 %13, ptr align 4 %7, i64 4, i1 false)
  %33 = load i64, ptr %11, align 8
  %34 = getelementptr inbounds nuw %"class.clang::SourceLocation", ptr %13, i32 0, i32 0
  %35 = load i32, ptr %34, align 4
  call void @_ZN5clang24PragmaDetectMismatchDeclC2EPNS_19TranslationUnitDeclENS_14SourceLocationEm(ptr noundef nonnull align 8 dereferenceable(48) %31, ptr noundef %32, i32 %35, i64 noundef %33)
  store ptr %31, ptr %12, align 8
  %36 = load ptr, ptr %12, align 8
  %37 = call noundef ptr @_ZN4llvm15TrailingObjectsIN5clang24PragmaDetectMismatchDeclEJcEE18getTrailingObjectsIcEEPT_v(ptr noundef nonnull align 1 dereferenceable(1) %36)
  %38 = call noundef ptr @_ZNK4llvm9StringRef4dataEv(ptr noundef nonnull align 8 dereferenceable(16) %8)
  %39 = call noundef i64 @_ZNK4llvm9StringRef4sizeEv(ptr noundef nonnull align 8 dereferenceable(16) %8)
  call void @llvm.memcpy.p0.p0.i64(ptr align 1 %37, ptr align 1 %38, i64 %39, i1 false)
  %40 = load ptr, ptr %12, align 8
  %41 = call noundef ptr @_ZN4llvm15TrailingObjectsIN5clang24PragmaDetectMismatchDeclEJcEE18getTrailingObjectsIcEEPT_v(ptr noundef nonnull align 1 dereferenceable(1) %40)
  %42 = call noundef i64 @_ZNK4llvm9StringRef4sizeEv(ptr noundef nonnull align 8 dereferenceable(16) %8)
  %43 = getelementptr inbounds i8, ptr %41, i64 %42
  store i8 0, ptr %43, align 1
  %44 = load ptr, ptr %12, align 8
  %45 = call noundef ptr @_ZN4llvm15TrailingObjectsIN5clang24PragmaDetectMismatchDeclEJcEE18getTrailingObjectsIcEEPT_v(ptr noundef nonnull align 1 dereferenceable(1) %44)
  %46 = load i64, ptr %11, align 8
  %47 = getelementptr inbounds i8, ptr %45, i64 %46
  %48 = call noundef ptr @_ZNK4llvm9StringRef4dataEv(ptr noundef nonnull align 8 dereferenceable(16) %5)
  %49 = call noundef i64 @_ZNK4llvm9StringRef4sizeEv(ptr noundef nonnull align 8 dereferenceable(16) %5)
  call void @llvm.memcpy.p0.p0.i64(ptr align 1 %47, ptr align 1 %48, i64 %49, i1 false)
  %50 = load ptr, ptr %12, align 8
  %51 = call noundef ptr @_ZN4llvm15TrailingObjectsIN5clang24PragmaDetectMismatchDeclEJcEE18getTrailingObjectsIcEEPT_v(ptr noundef nonnull align 1 dereferenceable(1) %50)
  %52 = load i64, ptr %11, align 8
  %53 = call noundef i64 @_ZNK4llvm9StringRef4sizeEv(ptr noundef nonnull align 8 dereferenceable(16) %5)
  %54 = add i64 %52, %53
  %55 = getelementptr inbounds i8, ptr %51, i64 %54
  store i8 0, ptr %55, align 1
  %56 = load ptr, ptr %12, align 8
  ret ptr %56
}