; Function Attrs: mustprogress nounwind uwtable
define dso_local noundef ptr @_ZN5clang24PragmaDetectMismatchDecl6CreateERKNS_10ASTContextEPNS_19TranslationUnitDeclENS_14SourceLocationEN4llvm9StringRefES8_(ptr noundef nonnull align 8 dereferenceable(23096) %0, ptr noundef %1, i32 %2, ptr nocapture readonly %3, i64 %4, ptr nocapture noundef readonly byval(%"class.llvm::StringRef") align 8 %5) local_unnamed_addr #2 align 2 {
  %7 = add i64 %4, 1
  %8 = icmp eq ptr %1, null
  %9 = getelementptr inbounds i8, ptr %1, i64 40
  %spec.select = select i1 %8, ptr null, ptr %9
  %10 = getelementptr inbounds nuw i8, ptr %5, i64 8
  %11 = load i64, ptr %10, align 8
  %12 = add i64 %4, 2
  %13 = add i64 %12, %11
  %14 = tail call noundef ptr @_ZN5clang4DeclnwEmRKNS_10ASTContextEPNS_11DeclContextEm(i64 noundef 48, ptr noundef nonnull align 8 dereferenceable(23096) %0, ptr noundef %spec.select, i64 noundef %13) #27
  tail call void @_ZN5clang4DeclC2ENS0_4KindEPNS_11DeclContextENS_14SourceLocationE(ptr noundef nonnull align 8 dereferenceable(33) %14, i32 noundef 9, ptr noundef %spec.select, i32 %2)
  store ptr getelementptr inbounds inrange(-16, 88) (i8, ptr @_ZTVN5clang24PragmaDetectMismatchDeclE, i64 16), ptr %14, align 8
  %15 = getelementptr inbounds nuw i8, ptr %14, i64 40
  store i64 %7, ptr %15, align 8
  %16 = getelementptr inbounds i8, ptr %14, i64 48
  tail call void @llvm.memcpy.p0.p0.i64(ptr nonnull align 1 %16, ptr align 1 %3, i64 %4, i1 false)
  %17 = getelementptr inbounds i8, ptr %16, i64 %4
  store i8 0, ptr %17, align 1
  %18 = getelementptr i8, ptr %16, i64 %7
  %19 = load ptr, ptr %5, align 8
  tail call void @llvm.memcpy.p0.p0.i64(ptr align 1 %18, ptr align 1 %19, i64 %11, i1 false)
  %20 = getelementptr i8, ptr %18, i64 %11
  store i8 0, ptr %20, align 1
  ret ptr %14
}